target datalayout = "e-m:e-p270:32:32-p271:32:32-p272:64:64-i64:64-i128:128-f80:128-n8:16:32:64-S128"
target triple = "x86_64-unknown-linux-gnu"

%"class.std::__cxx11::basic_string" = type { %"struct.std::__cxx11::basic_string<char>::_Alloc_hider", i64, %union.anon }
%"struct.std::__cxx11::basic_string<char>::_Alloc_hider" = type { ptr }
%union.anon = type { i64, [8 x i8] }
%"class.std::any" = type { ptr, %"union.std::any::_Storage" }
%"union.std::any::_Storage" = type { ptr }
%"union.std::any::_Arg" = type { ptr }
%"class.std::type_info" = type { ptr, ptr }

@_ZTIv = external constant ptr
@_ZTINSt7__cxx1112basic_stringIcSt11char_traitsIcESaIcEEE = linkonce_odr constant { ptr, ptr } { ptr getelementptr inbounds (ptr, ptr @_ZTVN10__cxxabiv117__class_type_infoE, i64 2), ptr @_ZTSNSt7__cxx1112basic_stringIcSt11char_traitsIcESaIcEEE }, comdat, align 8

; Function Attrs: mustprogress nounwind uwtable
define linkonce_odr noundef ptr @_ZNSt3any17_Manager_externalINSt7__cxx1112basic_stringIcSt11char_traitsIcESaIcEEEE9_S_accessERKNS_8_StorageE(ptr noundef nonnull align 8 dereferenceable(8) %__storage) #5 comdat align 2 {
entry:
  %__storage.addr = alloca ptr, align 8
  store ptr %__storage, ptr %__storage.addr, align 8
  %0 = load ptr, ptr %__storage.addr, align 8
  %1 = load ptr, ptr %0, align 8
  ret ptr %1
}

; Function Attrs: mustprogress uwtable
define linkonce_odr noundef ptr @_ZSt12__any_casterINSt7__cxx1112basic_stringIcSt11char_traitsIcESaIcEEEEPvPKSt3any(ptr noundef %__any) #4 comdat {
entry:
  %retval = alloca ptr, align 8
  %__any.addr = alloca ptr, align 8
  store ptr %__any, ptr %__any.addr, align 8
  %0 = load ptr, ptr %__any.addr, align 8
  %_M_manager = getelementptr inbounds %"class.std::any", ptr %0, i32 0, i32 0
  %1 = load ptr, ptr %_M_manager, align 8
  %cmp = icmp eq ptr %1, @_ZNSt3any17_Manager_externalINSt7__cxx1112basic_stringIcSt11char_traitsIcESaIcEEEE9_S_manageENS_3_OpEPKS_PNS_4_ArgE
  br i1 %cmp, label %if.then, label %lor.lhs.false

lor.lhs.false:                                    ; preds = %entry
  %2 = load ptr, ptr %__any.addr, align 8
  %call = call noundef nonnull align 8 dereferenceable(16) ptr @_ZNKSt3any4typeEv(ptr noundef nonnull align 8 dereferenceable(16) %2) #3
  %call1 = call noundef zeroext i1 @_ZNKSt9type_infoeqERKS_(ptr noundef nonnull align 8 dereferenceable(16) %call, ptr noundef nonnull align 8 dereferenceable(16) @_ZTINSt7__cxx1112basic_stringIcSt11char_traitsIcESaIcEEE) #3
  br i1 %call1, label %if.then, label %if.end

if.then:                                          ; preds = %lor.lhs.false, %entry
  %3 = load ptr, ptr %__any.addr, align 8
  %_M_storage = getelementptr inbounds %"class.std::any", ptr %3, i32 0, i32 1
  %call2 = call noundef ptr @_ZNSt3any17_Manager_externalINSt7__cxx1112basic_stringIcSt11char_traitsIcESaIcEEEE9_S_accessERKNS_8_StorageE(ptr noundef nonnull align 8 dereferenceable(8) %_M_storage)
  store ptr %call2, ptr %retval, align 8
  br label %return

if.end:                                           ; preds = %lor.lhs.false
  store ptr null, ptr %retval, align 8
  br label %return

return:                                           ; preds = %if.end, %if.then
  %4 = load ptr, ptr %retval, align 8
  ret ptr %4
}

; Function Attrs: mustprogress nounwind uwtable
define linkonce_odr noundef ptr @_ZSt8any_castINSt7__cxx1112basic_stringIcSt11char_traitsIcESaIcEEEEPKT_PKSt3any(ptr noundef %__any) #5 comdat personality ptr @__gxx_personality_v0 {
entry:
  %retval = alloca ptr, align 8
  %__any.addr = alloca ptr, align 8
  store ptr %__any, ptr %__any.addr, align 8
  %0 = load ptr, ptr %__any.addr, align 8
  %tobool = icmp ne ptr %0, null
  br i1 %tobool, label %if.then, label %if.end

if.then:                                          ; preds = %entry
  %1 = load ptr, ptr %__any.addr, align 8
  %call = invoke noundef ptr @_ZSt12__any_casterINSt7__cxx1112basic_stringIcSt11char_traitsIcESaIcEEEEPvPKSt3any(ptr noundef %1)
          to label %invoke.cont unwind label %terminate.lpad

invoke.cont:                                      ; preds = %if.then
  store ptr %call, ptr %retval, align 8
  br label %return

if.end:                                           ; preds = %entry
  store ptr null, ptr %retval, align 8
  br label %return

return:                                           ; preds = %if.end, %invoke.cont
  %2 = load ptr, ptr %retval, align 8
  ret ptr %2

terminate.lpad:                                   ; preds = %if.then
  %3 = landingpad { ptr, i32 }
          catch ptr null
  %4 = extractvalue { ptr, i32 } %3, 0
  call void @__clang_call_terminate(ptr %4) #25
  unreachable
}

; Function Attrs: mustprogress nounwind uwtable
define linkonce_odr noundef ptr @_ZNKSt9type_info4nameEv(ptr noundef nonnull align 8 dereferenceable(16) %this) #5 comdat align 2 {
entry:
  %this.addr = alloca ptr, align 8
  store ptr %this, ptr %this.addr, align 8
  %this1 = load ptr, ptr %this.addr, align 8
  %__name = getelementptr inbounds %"class.std::type_info", ptr %this1, i32 0, i32 1
  %0 = load ptr, ptr %__name, align 8
  %arrayidx = getelementptr inbounds i8, ptr %0, i64 0
  %1 = load i8, ptr %arrayidx, align 1
  %conv = sext i8 %1 to i32
  %cmp = icmp eq i32 %conv, 42
  br i1 %cmp, label %cond.true, label %cond.false

cond.true:                                        ; preds = %entry
  %__name2 = getelementptr inbounds %"class.std::type_info", ptr %this1, i32 0, i32 1
  %2 = load ptr, ptr %__name2, align 8
  %add.ptr = getelementptr inbounds i8, ptr %2, i64 1
  br label %cond.end

cond.false:                                       ; preds = %entry
  %__name3 = getelementptr inbounds %"class.std::type_info", ptr %this1, i32 0, i32 1
  %3 = load ptr, ptr %__name3, align 8
  br label %cond.end

cond.end:                                         ; preds = %cond.false, %cond.true
  %cond = phi ptr [ %add.ptr, %cond.true ], [ %3, %cond.false ]
  ret ptr %cond
}

; Function Attrs: mustprogress nounwind uwtable
define linkonce_odr noundef zeroext i1 @_ZNKSt3any9has_valueEv(ptr noundef nonnull align 8 dereferenceable(16) %this) #5 comdat align 2 {
entry:
  %this.addr = alloca ptr, align 8
  store ptr %this, ptr %this.addr, align 8
  %this1 = load ptr, ptr %this.addr, align 8
  %_M_manager = getelementptr inbounds %"class.std::any", ptr %this1, i32 0, i32 0
  %0 = load ptr, ptr %_M_manager, align 8
  %cmp = icmp ne ptr %0, null
  ret i1 %cmp
}

; Function Attrs: mustprogress uwtable
define linkonce_odr void @_ZSt8any_castINSt7__cxx1112basic_stringIcSt11char_traitsIcESaIcEEEET_RKSt3any(ptr noalias sret(%"class.std::__cxx11::basic_string") align 8 %agg.result, ptr noundef nonnull align 8 dereferenceable(16) %__any) #4 comdat {
entry:
  %result.ptr = alloca ptr, align 8
  %__any.addr = alloca ptr, align 8
  %__p = alloca ptr, align 8
  store ptr %agg.result, ptr %result.ptr, align 8
  store ptr %__any, ptr %__any.addr, align 8
  %0 = load ptr, ptr %__any.addr, align 8
  %call = call noundef ptr @_ZSt8any_castINSt7__cxx1112basic_stringIcSt11char_traitsIcESaIcEEEEPKT_PKSt3any(ptr noundef %0) #3
  store ptr %call, ptr %__p, align 8
  %1 = load ptr, ptr %__p, align 8
  %tobool = icmp ne ptr %1, null
  br i1 %tobool, label %if.then, label %if.end

if.then:                                          ; preds = %entry
  %2 = load ptr, ptr %__p, align 8
  call void @_ZNSt7__cxx1112basic_stringIcSt11char_traitsIcESaIcEEC1ERKS4_(ptr noundef nonnull align 8 dereferenceable(32) %agg.result, ptr noundef nonnull align 8 dereferenceable(32) %2)
  ret void

if.end:                                           ; preds = %entry
  call void @_ZSt20__throw_bad_any_castv() #24
  unreachable
}

; Function Attrs: mustprogress nounwind uwtable
define linkonce_odr noundef zeroext i1 @_ZNKSt9type_infoeqERKS_(ptr noundef nonnull align 8 dereferenceable(16) %this, ptr noundef nonnull align 8 dereferenceable(16) %__arg) #5 comdat align 2 {
entry:
  %retval = alloca i1, align 1
  %this.addr = alloca ptr, align 8
  %__arg.addr = alloca ptr, align 8
  store ptr %this, ptr %this.addr, align 8
  store ptr %__arg, ptr %__arg.addr, align 8
  %this1 = load ptr, ptr %this.addr, align 8
  %__name = getelementptr inbounds %"class.std::type_info", ptr %this1, i32 0, i32 1
  %0 = load ptr, ptr %__name, align 8
  %1 = load ptr, ptr %__arg.addr, align 8
  %__name2 = getelementptr inbounds %"class.std::type_info", ptr %1, i32 0, i32 1
  %2 = load ptr, ptr %__name2, align 8
  %cmp = icmp eq ptr %0, %2
  br i1 %cmp, label %if.then, label %if.end

if.then:                                          ; preds = %entry
  store i1 true, ptr %retval, align 1
  br label %return

if.end:                                           ; preds = %entry
  %__name3 = getelementptr inbounds %"class.std::type_info", ptr %this1, i32 0, i32 1
  %3 = load ptr, ptr %__name3, align 8
  %arrayidx = getelementptr inbounds i8, ptr %3, i64 0
  %4 = load i8, ptr %arrayidx, align 1
  %conv = sext i8 %4 to i32
  %cmp4 = icmp ne i32 %conv, 42
  br i1 %cmp4, label %land.rhs, label %land.end

land.rhs:                                         ; preds = %if.end
  %__name5 = getelementptr inbounds %"class.std::type_info", ptr %this1, i32 0, i32 1
  %5 = load ptr, ptr %__name5, align 8
  %6 = load ptr, ptr %__arg.addr, align 8
  %call = call noundef ptr @_ZNKSt9type_info4nameEv(ptr noundef nonnull align 8 dereferenceable(16) %6) #3
  %call6 = call i32 @strcmp(ptr noundef %5, ptr noundef %call) #3
  %cmp7 = icmp eq i32 %call6, 0
  br label %land.end

land.end:                                         ; preds = %land.rhs, %if.end
  %7 = phi i1 [ false, %if.end ], [ %cmp7, %land.rhs ]
  store i1 %7, ptr %retval, align 1
  br label %return

return:                                           ; preds = %land.end, %if.then
  %8 = load i1, ptr %retval, align 1
  ret i1 %8
}

; Function Attrs: mustprogress nounwind uwtable
define linkonce_odr noundef nonnull align 8 dereferenceable(16) ptr @_ZNKSt3any4typeEv(ptr noundef nonnull align 8 dereferenceable(16) %this) #5 comdat align 2 personality ptr @__gxx_personality_v0 {
entry:
  %retval = alloca ptr, align 8
  %this.addr = alloca ptr, align 8
  %__arg = alloca %"union.std::any::_Arg", align 8
  store ptr %this, ptr %this.addr, align 8
  %this1 = load ptr, ptr %this.addr, align 8
  %call = call noundef zeroext i1 @_ZNKSt3any9has_valueEv(ptr noundef nonnull align 8 dereferenceable(16) %this1) #3
  br i1 %call, label %if.end, label %if.then

if.then:                                          ; preds = %entry
  store ptr @_ZTIv, ptr %retval, align 8
  br label %return

if.end:                                           ; preds = %entry
  %_M_manager = getelementptr inbounds %"class.std::any", ptr %this1, i32 0, i32 0
  %0 = load ptr, ptr %_M_manager, align 8
  invoke void %0(i32 noundef 1, ptr noundef %this1, ptr noundef %__arg)
          to label %invoke.cont unwind label %terminate.lpad

invoke.cont:                                      ; preds = %if.end
  %1 = load ptr, ptr %__arg, align 8
  store ptr %1, ptr %retval, align 8
  br label %return

return:                                           ; preds = %invoke.cont, %if.then
  %2 = load ptr, ptr %retval, align 8
  ret ptr %2

terminate.lpad:                                   ; preds = %if.end
  %3 = landingpad { ptr, i32 }
          catch ptr null
  %4 = extractvalue { ptr, i32 } %3, 0
  call void @__clang_call_terminate(ptr %4) #25
  unreachable
}

; Function Attrs: mustprogress uwtable
define internal noundef zeroext i1 @_ZN7openvdb5v11_02io12_GLOBAL__N_111writeAsTypeINSt7__cxx1112basic_stringIcSt11char_traitsIcESaIcEEEEEbRSoRKSt3any(ptr noundef nonnull align 8 dereferenceable(8) %os, ptr noundef nonnull align 8 dereferenceable(16) %val) #4 personality ptr @__gxx_personality_v0 {
entry:
  %retval = alloca i1, align 1
  %os.addr = alloca ptr, align 8
  %val.addr = alloca ptr, align 8
  %ref.tmp = alloca %"class.std::__cxx11::basic_string", align 8
  %exn.slot = alloca ptr, align 8
  %ehselector.slot = alloca i32, align 4
  store ptr %os, ptr %os.addr, align 8
  store ptr %val, ptr %val.addr, align 8
  %0 = load ptr, ptr %val.addr, align 8
  %call = call noundef nonnull align 8 dereferenceable(16) ptr @_ZNKSt3any4typeEv(ptr noundef nonnull align 8 dereferenceable(16) %0) #3
  %call1 = call noundef zeroext i1 @_ZNKSt9type_infoeqERKS_(ptr noundef nonnull align 8 dereferenceable(16) %call, ptr noundef nonnull align 8 dereferenceable(16) @_ZTINSt7__cxx1112basic_stringIcSt11char_traitsIcESaIcEEE) #3
  br i1 %call1, label %if.then, label %if.end

if.then:                                          ; preds = %entry
  %1 = load ptr, ptr %os.addr, align 8
  %2 = load ptr, ptr %val.addr, align 8
  call void @_ZSt8any_castINSt7__cxx1112basic_stringIcSt11char_traitsIcESaIcEEEET_RKSt3any(ptr sret(%"class.std::__cxx11::basic_string") align 8 %ref.tmp, ptr noundef nonnull align 8 dereferenceable(16) %2)
  %call2 = invoke noundef nonnull align 8 dereferenceable(8) ptr @_ZStlsIcSt11char_traitsIcESaIcEERSt13basic_ostreamIT_T0_ES7_RKNSt7__cxx1112basic_stringIS4_S5_T1_EE(ptr noundef nonnull align 8 dereferenceable(8) %1, ptr noundef nonnull align 8 dereferenceable(32) %ref.tmp)
          to label %invoke.cont unwind label %lpad

invoke.cont:                                      ; preds = %if.then
  call void @_ZNSt7__cxx1112basic_stringIcSt11char_traitsIcESaIcEED1Ev(ptr noundef nonnull align 8 dereferenceable(32) %ref.tmp) #3
  store i1 true, ptr %retval, align 1
  br label %return

lpad:                                             ; preds = %if.then
  %3 = landingpad { ptr, i32 }
          cleanup
  %4 = extractvalue { ptr, i32 } %3, 0
  store ptr %4, ptr %exn.slot, align 8
  %5 = extractvalue { ptr, i32 } %3, 1
  store i32 %5, ptr %ehselector.slot, align 4
  call void @_ZNSt7__cxx1112basic_stringIcSt11char_traitsIcESaIcEED1Ev(ptr noundef nonnull align 8 dereferenceable(32) %ref.tmp) #3
  br label %eh.resume

if.end:                                           ; preds = %entry
  store i1 false, ptr %retval, align 1
  br label %return

return:                                           ; preds = %if.end, %invoke.cont
  %6 = load i1, ptr %retval, align 1
  ret i1 %6

eh.resume:                                        ; preds = %lpad
  %exn = load ptr, ptr %exn.slot, align 8
  %sel = load i32, ptr %ehselector.slot, align 4
  %lpad.val = insertvalue { ptr, i32 } poison, ptr %exn, 0
  %lpad.val3 = insertvalue { ptr, i32 } %lpad.val, i32 %sel, 1
  resume { ptr, i32 } %lpad.val3
}