; Function Attrs: mustprogress uwtable
define internal fastcc noundef zeroext i1 @_ZN7openvdb5v11_02io12_GLOBAL__N_111writeAsTypeINSt7__cxx1112basic_stringIcSt11char_traitsIcESaIcEEEEEbRSoRKSt3any(ptr noundef nonnull align 8 dereferenceable(8) %os, ptr noundef nonnull align 8 dereferenceable(16) %val) unnamed_addr #6 personality ptr @__gxx_personality_v0 {
entry:
  %__arg.i.i.i.i = alloca %"union.std::any::_Arg", align 8
  %__arg.i = alloca %"union.std::any::_Arg", align 8
  %ref.tmp = alloca %"class.std::__cxx11::basic_string", align 8
  call void @llvm.lifetime.start.p0(i64 8, ptr nonnull %__arg.i)
  %0 = load ptr, ptr %val, align 8
  %cmp.i.not.i = icmp eq ptr %0, null
  br i1 %cmp.i.not.i, label %_ZNKSt3any4typeEv.exit, label %if.end.i

if.end.i:                                         ; preds = %entry
  invoke void %0(i32 noundef 1, ptr noundef nonnull %val, ptr noundef nonnull %__arg.i)
          to label %invoke.cont.i unwind label %terminate.lpad.i

invoke.cont.i:                                    ; preds = %if.end.i
  %1 = load ptr, ptr %__arg.i, align 8
  br label %_ZNKSt3any4typeEv.exit

terminate.lpad.i:                                 ; preds = %if.end.i
  %2 = landingpad { ptr, i32 }
          catch ptr null
  %3 = extractvalue { ptr, i32 } %2, 0
  call void @__clang_call_terminate(ptr %3) #37
  unreachable

_ZNKSt3any4typeEv.exit:                           ; preds = %entry, %invoke.cont.i
  %retval.0.i = phi ptr [ %1, %invoke.cont.i ], [ @_ZTIv, %entry ]
  call void @llvm.lifetime.end.p0(i64 8, ptr nonnull %__arg.i)
  %__name.i = getelementptr inbounds i8, ptr %retval.0.i, i64 8
  %4 = load ptr, ptr %__name.i, align 8
  %cmp.i = icmp eq ptr %4, @_ZTSNSt7__cxx1112basic_stringIcSt11char_traitsIcESaIcEEE
  br i1 %cmp.i, label %if.then, label %if.end.i2

if.end.i2:                                        ; preds = %_ZNKSt3any4typeEv.exit
  %5 = load i8, ptr %4, align 1
  %cmp4.not.i = icmp eq i8 %5, 42
  br i1 %cmp4.not.i, label %return, label %_ZNKSt9type_infoeqERKS_.exit

_ZNKSt9type_infoeqERKS_.exit:                     ; preds = %if.end.i2
  %call6.i = call i32 @strcmp(ptr noundef nonnull dereferenceable(1) %4, ptr noundef nonnull dereferenceable(53) @_ZTSNSt7__cxx1112basic_stringIcSt11char_traitsIcESaIcEEE) #25
  %cmp7.i = icmp eq i32 %call6.i, 0
  br i1 %cmp7.i, label %if.then, label %return

if.then:                                          ; preds = %_ZNKSt3any4typeEv.exit, %_ZNKSt9type_infoeqERKS_.exit
  %6 = load ptr, ptr %val, align 8, !noalias !10
  %cmp.i.i.i = icmp eq ptr %6, @_ZNSt3any17_Manager_externalINSt7__cxx1112basic_stringIcSt11char_traitsIcESaIcEEEE9_S_manageENS_3_OpEPKS_PNS_4_ArgE
  br i1 %cmp.i.i.i, label %_ZSt8any_castINSt7__cxx1112basic_stringIcSt11char_traitsIcESaIcEEEEPKT_PKSt3any.exit.i, label %lor.lhs.false.i.i.i

lor.lhs.false.i.i.i:                              ; preds = %if.then
  call void @llvm.lifetime.start.p0(i64 8, ptr nonnull %__arg.i.i.i.i), !noalias !10
  %cmp.i.not.i.i.i.i = icmp eq ptr %6, null
  br i1 %cmp.i.not.i.i.i.i, label %_ZNKSt3any4typeEv.exit.i.i.i, label %if.end.i.i.i.i

if.end.i.i.i.i:                                   ; preds = %lor.lhs.false.i.i.i
  invoke void %6(i32 noundef 1, ptr noundef nonnull %val, ptr noundef nonnull %__arg.i.i.i.i)
          to label %invoke.cont.i.i.i.i unwind label %terminate.lpad.i.i.i.i, !noalias !10

invoke.cont.i.i.i.i:                              ; preds = %if.end.i.i.i.i
  %7 = load ptr, ptr %__arg.i.i.i.i, align 8, !noalias !10
  br label %_ZNKSt3any4typeEv.exit.i.i.i

terminate.lpad.i.i.i.i:                           ; preds = %if.end.i.i.i.i
  %8 = landingpad { ptr, i32 }
          catch ptr null
  %9 = extractvalue { ptr, i32 } %8, 0
  call void @__clang_call_terminate(ptr %9) #37
  unreachable

_ZNKSt3any4typeEv.exit.i.i.i:                     ; preds = %invoke.cont.i.i.i.i, %lor.lhs.false.i.i.i
  %retval.0.i.i.i.i = phi ptr [ %7, %invoke.cont.i.i.i.i ], [ @_ZTIv, %lor.lhs.false.i.i.i ]
  call void @llvm.lifetime.end.p0(i64 8, ptr nonnull %__arg.i.i.i.i), !noalias !10
  %__name.i.i.i.i = getelementptr inbounds i8, ptr %retval.0.i.i.i.i, i64 8
  %10 = load ptr, ptr %__name.i.i.i.i, align 8, !noalias !10
  %cmp.i.i.i.i = icmp eq ptr %10, @_ZTSNSt7__cxx1112basic_stringIcSt11char_traitsIcESaIcEEE
  br i1 %cmp.i.i.i.i, label %_ZSt8any_castINSt7__cxx1112basic_stringIcSt11char_traitsIcESaIcEEEEPKT_PKSt3any.exit.i, label %if.end.i3.i.i.i

if.end.i3.i.i.i:                                  ; preds = %_ZNKSt3any4typeEv.exit.i.i.i
  %11 = load i8, ptr %10, align 1, !noalias !10
  %cmp4.not.i.i.i.i = icmp eq i8 %11, 42
  br i1 %cmp4.not.i.i.i.i, label %if.end.i4, label %_ZNKSt9type_infoeqERKS_.exit.i.i.i

_ZNKSt9type_infoeqERKS_.exit.i.i.i:               ; preds = %if.end.i3.i.i.i
  %call6.i.i.i.i = call i32 @strcmp(ptr noundef nonnull dereferenceable(1) %10, ptr noundef nonnull dereferenceable(53) @_ZTSNSt7__cxx1112basic_stringIcSt11char_traitsIcESaIcEEE) #25, !noalias !10
  %cmp7.i.i.i.i = icmp eq i32 %call6.i.i.i.i, 0
  br i1 %cmp7.i.i.i.i, label %_ZSt8any_castINSt7__cxx1112basic_stringIcSt11char_traitsIcESaIcEEEEPKT_PKSt3any.exit.i, label %if.end.i4

_ZSt8any_castINSt7__cxx1112basic_stringIcSt11char_traitsIcESaIcEEEEPKT_PKSt3any.exit.i: ; preds = %_ZNKSt9type_infoeqERKS_.exit.i.i.i, %_ZNKSt3any4typeEv.exit.i.i.i, %if.then
  %_M_storage.i.i.i = getelementptr inbounds i8, ptr %val, i64 8
  %12 = load ptr, ptr %_M_storage.i.i.i, align 8, !noalias !10
  %tobool.not.i = icmp eq ptr %12, null
  br i1 %tobool.not.i, label %if.end.i4, label %_ZSt8any_castINSt7__cxx1112basic_stringIcSt11char_traitsIcESaIcEEEET_RKSt3any.exit

if.end.i4:                                        ; preds = %_ZSt8any_castINSt7__cxx1112basic_stringIcSt11char_traitsIcESaIcEEEEPKT_PKSt3any.exit.i, %_ZNKSt9type_infoeqERKS_.exit.i.i.i, %if.end.i3.i.i.i
  call void @_ZSt20__throw_bad_any_castv() #38, !noalias !10
  unreachable

_ZSt8any_castINSt7__cxx1112basic_stringIcSt11char_traitsIcESaIcEEEET_RKSt3any.exit: ; preds = %_ZSt8any_castINSt7__cxx1112basic_stringIcSt11char_traitsIcESaIcEEEEPKT_PKSt3any.exit.i
  call void @_ZNSt7__cxx1112basic_stringIcSt11char_traitsIcESaIcEEC1ERKS4_(ptr noundef nonnull align 8 dereferenceable(32) %ref.tmp, ptr noundef nonnull align 8 dereferenceable(32) %12)
  %call2 = invoke noundef nonnull align 8 dereferenceable(8) ptr @_ZStlsIcSt11char_traitsIcESaIcEERSt13basic_ostreamIT_T0_ES7_RKNSt7__cxx1112basic_stringIS4_S5_T1_EE(ptr noundef nonnull align 8 dereferenceable(8) %os, ptr noundef nonnull align 8 dereferenceable(32) %ref.tmp)
          to label %invoke.cont unwind label %lpad

invoke.cont:                                      ; preds = %_ZSt8any_castINSt7__cxx1112basic_stringIcSt11char_traitsIcESaIcEEEET_RKSt3any.exit
  call void @_ZNSt7__cxx1112basic_stringIcSt11char_traitsIcESaIcEED1Ev(ptr noundef nonnull align 8 dereferenceable(32) %ref.tmp) #25
  br label %return

lpad:                                             ; preds = %_ZSt8any_castINSt7__cxx1112basic_stringIcSt11char_traitsIcESaIcEEEET_RKSt3any.exit
  %13 = landingpad { ptr, i32 }
          cleanup
  call void @_ZNSt7__cxx1112basic_stringIcSt11char_traitsIcESaIcEED1Ev(ptr noundef nonnull align 8 dereferenceable(32) %ref.tmp) #25
  resume { ptr, i32 } %13

return:                                           ; preds = %if.end.i2, %_ZNKSt9type_infoeqERKS_.exit, %invoke.cont
  %retval.0.i36 = phi i1 [ false, %_ZNKSt9type_infoeqERKS_.exit ], [ true, %invoke.cont ], [ false, %if.end.i2 ]
  ret i1 %retval.0.i36
}